; Function Attrs: nounwind uwtable
define ptr @l_Lean_Elab_Structural_IndGroupInst_nestedTypeFormers(ptr noundef readonly captures(none) %0, ptr noundef %1, ptr noundef %2, ptr noundef %3, ptr noundef %4, ptr noundef %5) local_unnamed_addr #0 {
  %7 = getelementptr inbounds nuw i8, ptr %0, i64 8
  %8 = load ptr, ptr %7, align 8, !tbaa !11
  %9 = getelementptr inbounds nuw i8, ptr %8, i64 16
  %10 = load ptr, ptr %9, align 8, !tbaa !11
  %11 = ptrtoint ptr %10 to i64
  %12 = and i64 %11, 1
  %.not = icmp eq i64 %12, 0
  br i1 %.not, label %lean_nat_eq.exit, label %13, !prof !4

13:                                               ; preds = %6
  %14 = icmp eq ptr %10, inttoptr (i64 1 to ptr)
  br i1 %14, label %18, label %16

lean_nat_eq.exit:                                 ; preds = %6
  %15 = tail call zeroext i1 @lean_nat_big_eq(ptr noundef %10, ptr noundef nonnull inttoptr (i64 1 to ptr)) #4
  br i1 %15, label %18, label %16

16:                                               ; preds = %13, %lean_nat_eq.exit
  %17 = tail call ptr @l_Lean_Elab_Structural_IndGroupInst_nestedTypeFormers___lambda__1(ptr noundef nonnull %0, ptr nonnull poison, ptr noundef %1, ptr noundef %2, ptr noundef %3, ptr noundef %4, ptr noundef %5)
  br label %62

18:                                               ; preds = %13, %lean_nat_eq.exit
  %19 = ptrtoint ptr %4 to i64
  %20 = and i64 %19, 1
  %.not31 = icmp eq i64 %20, 0
  br i1 %.not31, label %21, label %lean_dec.exit24

21:                                               ; preds = %18
  %22 = load i32, ptr %4, align 4, !tbaa !5
  %23 = icmp sgt i32 %22, 1
  br i1 %23, label %24, label %26, !prof !10

24:                                               ; preds = %21
  %25 = add nsw i32 %22, -1
  store i32 %25, ptr %4, align 4, !tbaa !5
  br label %lean_dec.exit24

26:                                               ; preds = %21
  %.not.i = icmp eq i32 %22, 0
  br i1 %.not.i, label %lean_dec.exit24, label %27

27:                                               ; preds = %26
  tail call void @lean_dec_ref_cold(ptr noundef nonnull %4) #4
  br label %lean_dec.exit24

lean_dec.exit24:                                  ; preds = %27, %26, %24, %18
  %28 = ptrtoint ptr %3 to i64
  %29 = and i64 %28, 1
  %.not32 = icmp eq i64 %29, 0
  br i1 %.not32, label %30, label %lean_dec.exit23

30:                                               ; preds = %lean_dec.exit24
  %31 = load i32, ptr %3, align 4, !tbaa !5
  %32 = icmp sgt i32 %31, 1
  br i1 %32, label %33, label %35, !prof !10

33:                                               ; preds = %30
  %34 = add nsw i32 %31, -1
  store i32 %34, ptr %3, align 4, !tbaa !5
  br label %lean_dec.exit23

35:                                               ; preds = %30
  %.not.i25 = icmp eq i32 %31, 0
  br i1 %.not.i25, label %lean_dec.exit23, label %36

36:                                               ; preds = %35
  tail call void @lean_dec_ref_cold(ptr noundef nonnull %3) #4
  br label %lean_dec.exit23

lean_dec.exit23:                                  ; preds = %36, %35, %33, %lean_dec.exit24
  %37 = ptrtoint ptr %2 to i64
  %38 = and i64 %37, 1
  %.not33 = icmp eq i64 %38, 0
  br i1 %.not33, label %39, label %lean_dec.exit22

39:                                               ; preds = %lean_dec.exit23
  %40 = load i32, ptr %2, align 4, !tbaa !5
  %41 = icmp sgt i32 %40, 1
  br i1 %41, label %42, label %44, !prof !10

42:                                               ; preds = %39
  %43 = add nsw i32 %40, -1
  store i32 %43, ptr %2, align 4, !tbaa !5
  br label %lean_dec.exit22

44:                                               ; preds = %39
  %.not.i27 = icmp eq i32 %40, 0
  br i1 %.not.i27, label %lean_dec.exit22, label %45

45:                                               ; preds = %44
  tail call void @lean_dec_ref_cold(ptr noundef nonnull %2) #4
  br label %lean_dec.exit22

lean_dec.exit22:                                  ; preds = %45, %44, %42, %lean_dec.exit23
  %46 = ptrtoint ptr %1 to i64
  %47 = and i64 %46, 1
  %.not34 = icmp eq i64 %47, 0
  br i1 %.not34, label %48, label %lean_dec.exit

48:                                               ; preds = %lean_dec.exit22
  %49 = load i32, ptr %1, align 4, !tbaa !5
  %50 = icmp sgt i32 %49, 1
  br i1 %50, label %51, label %53, !prof !10

51:                                               ; preds = %48
  %52 = add nsw i32 %49, -1
  store i32 %52, ptr %1, align 4, !tbaa !5
  br label %lean_dec.exit

53:                                               ; preds = %48
  %.not.i29 = icmp eq i32 %49, 0
  br i1 %.not.i29, label %lean_dec.exit, label %54

54:                                               ; preds = %53
  tail call void @lean_dec_ref_cold(ptr noundef nonnull %1) #4
  br label %lean_dec.exit

lean_dec.exit:                                    ; preds = %54, %53, %51, %lean_dec.exit22
  %55 = load ptr, ptr @l_Lean_Elab_Structural_IndGroupInst_nestedTypeFormers___closed__1, align 8, !tbaa !11
  tail call void @lean_inc_heartbeat() #4
  %56 = tail call noalias ptr @mi_malloc_small(i64 noundef 24) #4
  %57 = icmp eq ptr %56, null
  br i1 %57, label %58, label %lean_alloc_ctor.exit

58:                                               ; preds = %lean_dec.exit
  tail call void @lean_internal_panic_out_of_memory() #5
  unreachable

lean_alloc_ctor.exit:                             ; preds = %lean_dec.exit
  %59 = getelementptr inbounds nuw i8, ptr %56, i64 4
  store i32 1, ptr %56, align 4, !tbaa !5
  store i32 131096, ptr %59, align 4
  %60 = getelementptr inbounds nuw i8, ptr %56, i64 8
  store ptr %55, ptr %60, align 8, !tbaa !11
  %61 = getelementptr inbounds nuw i8, ptr %56, i64 16
  store ptr %5, ptr %61, align 8, !tbaa !11
  br label %62

62:                                               ; preds = %lean_alloc_ctor.exit, %16
  %.0 = phi ptr [ %17, %16 ], [ %56, %lean_alloc_ctor.exit ]
  ret ptr %.0
}